target datalayout = "e-m:e-p270:32:32-p271:32:32-p272:64:64-i64:64-i128:128-f80:128-n8:16:32:64-S128"
target triple = "x86_64-pc-linux-gnu"

%struct.ParsedText = type { ptr, i32, i32, i32 }
%struct.ParsedWord = type { i16, i16, i16, i16, %union.anon, ptr }
%union.anon = type { ptr }
%struct.MorphOpaque = type { i32, i32 }

; Function Attrs: inlinehint nounwind uwtable
define internal ptr @DatumGetPointer(i64 noundef %0) #1 {
  %2 = alloca i64, align 8
  store i64 %0, ptr %2, align 8
  %3 = load i64, ptr %2, align 8
  %4 = inttoptr i64 %3 to ptr
  ret ptr %4
}

; Function Attrs: nounwind uwtable
define internal void @pushval_morph(i64 noundef %0, ptr noundef %1, ptr noundef %2, i32 noundef %3, i16 noundef signext %4, i1 noundef zeroext %5) #0 {
  %7 = alloca i64, align 8
  %8 = alloca ptr, align 8
  %9 = alloca ptr, align 8
  %10 = alloca i32, align 4
  %11 = alloca i16, align 2
  %12 = alloca i8, align 1
  %13 = alloca i32, align 4
  %14 = alloca %struct.ParsedText, align 8
  %15 = alloca i32, align 4
  %16 = alloca i32, align 4
  %17 = alloca i32, align 4
  %18 = alloca i32, align 4
  %19 = alloca i32, align 4
  %20 = alloca ptr, align 8
  store i64 %0, ptr %7, align 8
  store ptr %1, ptr %8, align 8
  store ptr %2, ptr %9, align 8
  store i32 %3, ptr %10, align 4
  store i16 %4, ptr %11, align 2
  %21 = zext i1 %5 to i8
  store i8 %21, ptr %12, align 1
  call void @llvm.lifetime.start.p0(i64 4, ptr %13) #7
  store i32 0, ptr %13, align 4
  call void @llvm.lifetime.start.p0(i64 24, ptr %14) #7
  call void @llvm.lifetime.start.p0(i64 4, ptr %15) #7
  call void @llvm.lifetime.start.p0(i64 4, ptr %16) #7
  store i32 0, ptr %16, align 4
  call void @llvm.lifetime.start.p0(i64 4, ptr %17) #7
  store i32 0, ptr %17, align 4
  call void @llvm.lifetime.start.p0(i64 4, ptr %18) #7
  store i32 0, ptr %18, align 4
  call void @llvm.lifetime.start.p0(i64 4, ptr %19) #7
  store i32 0, ptr %19, align 4
  call void @llvm.lifetime.start.p0(i64 8, ptr %20) #7
  %22 = load i64, ptr %7, align 8
  %23 = call ptr @DatumGetPointer(i64 noundef %22)
  store ptr %23, ptr %20, align 8
  %24 = getelementptr inbounds nuw %struct.ParsedText, ptr %14, i32 0, i32 1
  store i32 4, ptr %24, align 8
  %25 = getelementptr inbounds nuw %struct.ParsedText, ptr %14, i32 0, i32 2
  store i32 0, ptr %25, align 4
  %26 = getelementptr inbounds nuw %struct.ParsedText, ptr %14, i32 0, i32 3
  store i32 0, ptr %26, align 8
  %27 = getelementptr inbounds nuw %struct.ParsedText, ptr %14, i32 0, i32 1
  %28 = load i32, ptr %27, align 8
  %29 = sext i32 %28 to i64
  %30 = mul i64 24, %29
  %31 = call ptr @palloc(i64 noundef %30)
  %32 = getelementptr inbounds nuw %struct.ParsedText, ptr %14, i32 0, i32 0
  store ptr %31, ptr %32, align 8
  %33 = load ptr, ptr %20, align 8
  %34 = getelementptr inbounds nuw %struct.MorphOpaque, ptr %33, i32 0, i32 0
  %35 = load i32, ptr %34, align 4
  %36 = load ptr, ptr %9, align 8
  %37 = load i32, ptr %10, align 4
  call void @parsetext(i32 noundef %35, ptr noundef %14, ptr noundef %36, i32 noundef %37)
  %38 = getelementptr inbounds nuw %struct.ParsedText, ptr %14, i32 0, i32 2
  %39 = load i32, ptr %38, align 4
  %40 = icmp sgt i32 %39, 0
  br i1 %40, label %41, label %228

41:                                               ; preds = %6
  br label %42

42:                                               ; preds = %222, %41
  %43 = load i32, ptr %13, align 4
  %44 = getelementptr inbounds nuw %struct.ParsedText, ptr %14, i32 0, i32 2
  %45 = load i32, ptr %44, align 4
  %46 = icmp slt i32 %43, %45
  br i1 %46, label %47, label %225

47:                                               ; preds = %42
  %48 = load i32, ptr %16, align 4
  %49 = icmp ugt i32 %48, 0
  br i1 %49, label %50, label %91

50:                                               ; preds = %47
  %51 = load i32, ptr %16, align 4
  %52 = add i32 %51, 1
  %53 = getelementptr inbounds nuw %struct.ParsedText, ptr %14, i32 0, i32 0
  %54 = load ptr, ptr %53, align 8
  %55 = load i32, ptr %13, align 4
  %56 = sext i32 %55 to i64
  %57 = getelementptr inbounds %struct.ParsedWord, ptr %54, i64 %56
  %58 = getelementptr inbounds nuw %struct.ParsedWord, ptr %57, i32 0, i32 4
  %59 = load i16, ptr %58, align 8
  %60 = zext i16 %59 to i32
  %61 = icmp ult i32 %52, %60
  br i1 %61, label %62, label %91

62:                                               ; preds = %50
  br label %63

63:                                               ; preds = %85, %62
  %64 = load i32, ptr %16, align 4
  %65 = add i32 %64, 1
  %66 = getelementptr inbounds nuw %struct.ParsedText, ptr %14, i32 0, i32 0
  %67 = load ptr, ptr %66, align 8
  %68 = load i32, ptr %13, align 4
  %69 = sext i32 %68 to i64
  %70 = getelementptr inbounds %struct.ParsedWord, ptr %67, i64 %69
  %71 = getelementptr inbounds nuw %struct.ParsedWord, ptr %70, i32 0, i32 4
  %72 = load i16, ptr %71, align 8
  %73 = zext i16 %72 to i32
  %74 = icmp ult i32 %65, %73
  br i1 %74, label %75, label %90

75:                                               ; preds = %63
  %76 = load ptr, ptr %8, align 8
  call void @pushStop(ptr noundef %76)
  %77 = load i32, ptr %18, align 4
  %78 = icmp ne i32 %77, 0
  br i1 %78, label %79, label %85

79:                                               ; preds = %75
  %80 = load ptr, ptr %8, align 8
  %81 = load ptr, ptr %20, align 8
  %82 = getelementptr inbounds nuw %struct.MorphOpaque, ptr %81, i32 0, i32 1
  %83 = load i32, ptr %82, align 4
  %84 = trunc i32 %83 to i8
  call void @pushOperator(ptr noundef %80, i8 noundef signext %84, i16 noundef signext 1)
  br label %85

85:                                               ; preds = %79, %75
  %86 = load i32, ptr %18, align 4
  %87 = add i32 %86, 1
  store i32 %87, ptr %18, align 4
  %88 = load i32, ptr %16, align 4
  %89 = add i32 %88, 1
  store i32 %89, ptr %16, align 4
  br label %63, !llvm.loop !9

90:                                               ; preds = %63
  br label %91

91:                                               ; preds = %90, %50, %47
  %92 = getelementptr inbounds nuw %struct.ParsedText, ptr %14, i32 0, i32 0
  %93 = load ptr, ptr %92, align 8
  %94 = load i32, ptr %13, align 4
  %95 = sext i32 %94 to i64
  %96 = getelementptr inbounds %struct.ParsedWord, ptr %93, i64 %95
  %97 = getelementptr inbounds nuw %struct.ParsedWord, ptr %96, i32 0, i32 4
  %98 = load i16, ptr %97, align 8
  %99 = zext i16 %98 to i32
  store i32 %99, ptr %16, align 4
  store i32 0, ptr %17, align 4
  br label %100

100:                                              ; preds = %210, %91
  %101 = load i32, ptr %13, align 4
  %102 = getelementptr inbounds nuw %struct.ParsedText, ptr %14, i32 0, i32 2
  %103 = load i32, ptr %102, align 4
  %104 = icmp slt i32 %101, %103
  br i1 %104, label %105, label %116

105:                                              ; preds = %100
  %106 = load i32, ptr %16, align 4
  %107 = getelementptr inbounds nuw %struct.ParsedText, ptr %14, i32 0, i32 0
  %108 = load ptr, ptr %107, align 8
  %109 = load i32, ptr %13, align 4
  %110 = sext i32 %109 to i64
  %111 = getelementptr inbounds %struct.ParsedWord, ptr %108, i64 %110
  %112 = getelementptr inbounds nuw %struct.ParsedWord, ptr %111, i32 0, i32 4
  %113 = load i16, ptr %112, align 8
  %114 = zext i16 %113 to i32
  %115 = icmp eq i32 %106, %114
  br label %116

116:                                              ; preds = %105, %100
  %117 = phi i1 [ false, %100 ], [ %115, %105 ]
  br i1 %117, label %118, label %213

118:                                              ; preds = %116
  %119 = getelementptr inbounds nuw %struct.ParsedText, ptr %14, i32 0, i32 0
  %120 = load ptr, ptr %119, align 8
  %121 = load i32, ptr %13, align 4
  %122 = sext i32 %121 to i64
  %123 = getelementptr inbounds %struct.ParsedWord, ptr %120, i64 %122
  %124 = getelementptr inbounds nuw %struct.ParsedWord, ptr %123, i32 0, i32 2
  %125 = load i16, ptr %124, align 4
  %126 = zext i16 %125 to i32
  store i32 %126, ptr %15, align 4
  store i32 0, ptr %19, align 4
  br label %127

127:                                              ; preds = %200, %118
  %128 = load i32, ptr %13, align 4
  %129 = getelementptr inbounds nuw %struct.ParsedText, ptr %14, i32 0, i32 2
  %130 = load i32, ptr %129, align 4
  %131 = icmp slt i32 %128, %130
  br i1 %131, label %132, label %154

132:                                              ; preds = %127
  %133 = load i32, ptr %16, align 4
  %134 = getelementptr inbounds nuw %struct.ParsedText, ptr %14, i32 0, i32 0
  %135 = load ptr, ptr %134, align 8
  %136 = load i32, ptr %13, align 4
  %137 = sext i32 %136 to i64
  %138 = getelementptr inbounds %struct.ParsedWord, ptr %135, i64 %137
  %139 = getelementptr inbounds nuw %struct.ParsedWord, ptr %138, i32 0, i32 4
  %140 = load i16, ptr %139, align 8
  %141 = zext i16 %140 to i32
  %142 = icmp eq i32 %133, %141
  br i1 %142, label %143, label %154

143:                                              ; preds = %132
  %144 = load i32, ptr %15, align 4
  %145 = getelementptr inbounds nuw %struct.ParsedText, ptr %14, i32 0, i32 0
  %146 = load ptr, ptr %145, align 8
  %147 = load i32, ptr %13, align 4
  %148 = sext i32 %147 to i64
  %149 = getelementptr inbounds %struct.ParsedWord, ptr %146, i64 %148
  %150 = getelementptr inbounds nuw %struct.ParsedWord, ptr %149, i32 0, i32 2
  %151 = load i16, ptr %150, align 4
  %152 = zext i16 %151 to i32
  %153 = icmp eq i32 %144, %152
  br label %154

154:                                              ; preds = %143, %132, %127
  %155 = phi i1 [ false, %132 ], [ false, %127 ], [ %153, %143 ]
  br i1 %155, label %156, label %205

156:                                              ; preds = %154
  %157 = load ptr, ptr %8, align 8
  %158 = getelementptr inbounds nuw %struct.ParsedText, ptr %14, i32 0, i32 0
  %159 = load ptr, ptr %158, align 8
  %160 = load i32, ptr %13, align 4
  %161 = sext i32 %160 to i64
  %162 = getelementptr inbounds %struct.ParsedWord, ptr %159, i64 %161
  %163 = getelementptr inbounds nuw %struct.ParsedWord, ptr %162, i32 0, i32 5
  %164 = load ptr, ptr %163, align 8
  %165 = getelementptr inbounds nuw %struct.ParsedText, ptr %14, i32 0, i32 0
  %166 = load ptr, ptr %165, align 8
  %167 = load i32, ptr %13, align 4
  %168 = sext i32 %167 to i64
  %169 = getelementptr inbounds %struct.ParsedWord, ptr %166, i64 %168
  %170 = getelementptr inbounds nuw %struct.ParsedWord, ptr %169, i32 0, i32 1
  %171 = load i16, ptr %170, align 2
  %172 = zext i16 %171 to i32
  %173 = load i16, ptr %11, align 2
  %174 = getelementptr inbounds nuw %struct.ParsedText, ptr %14, i32 0, i32 0
  %175 = load ptr, ptr %174, align 8
  %176 = load i32, ptr %13, align 4
  %177 = sext i32 %176 to i64
  %178 = getelementptr inbounds %struct.ParsedWord, ptr %175, i64 %177
  %179 = getelementptr inbounds nuw %struct.ParsedWord, ptr %178, i32 0, i32 0
  %180 = load i16, ptr %179, align 8
  %181 = zext i16 %180 to i32
  %182 = and i32 %181, 2
  %183 = icmp ne i32 %182, 0
  br i1 %183, label %187, label %184

184:                                              ; preds = %156
  %185 = load i8, ptr %12, align 1, !range !10, !noundef !11
  %186 = trunc i8 %185 to i1
  br label %187

187:                                              ; preds = %184, %156
  %188 = phi i1 [ true, %156 ], [ %186, %184 ]
  call void @pushValue(ptr noundef %157, ptr noundef %164, i32 noundef %172, i16 noundef signext %173, i1 noundef zeroext %188)
  %189 = getelementptr inbounds nuw %struct.ParsedText, ptr %14, i32 0, i32 0
  %190 = load ptr, ptr %189, align 8
  %191 = load i32, ptr %13, align 4
  %192 = sext i32 %191 to i64
  %193 = getelementptr inbounds %struct.ParsedWord, ptr %190, i64 %192
  %194 = getelementptr inbounds nuw %struct.ParsedWord, ptr %193, i32 0, i32 5
  %195 = load ptr, ptr %194, align 8
  call void @pfree(ptr noundef %195)
  %196 = load i32, ptr %19, align 4
  %197 = icmp ne i32 %196, 0
  br i1 %197, label %198, label %200

198:                                              ; preds = %187
  %199 = load ptr, ptr %8, align 8
  call void @pushOperator(ptr noundef %199, i8 noundef signext 2, i16 noundef signext 0)
  br label %200

200:                                              ; preds = %198, %187
  %201 = load i32, ptr %19, align 4
  %202 = add i32 %201, 1
  store i32 %202, ptr %19, align 4
  %203 = load i32, ptr %13, align 4
  %204 = add i32 %203, 1
  store i32 %204, ptr %13, align 4
  br label %127, !llvm.loop !12

205:                                              ; preds = %154
  %206 = load i32, ptr %17, align 4
  %207 = icmp ne i32 %206, 0
  br i1 %207, label %208, label %210

208:                                              ; preds = %205
  %209 = load ptr, ptr %8, align 8
  call void @pushOperator(ptr noundef %209, i8 noundef signext 3, i16 noundef signext 0)
  br label %210

210:                                              ; preds = %208, %205
  %211 = load i32, ptr %17, align 4
  %212 = add i32 %211, 1
  store i32 %212, ptr %17, align 4
  br label %100, !llvm.loop !13

213:                                              ; preds = %116
  %214 = load i32, ptr %18, align 4
  %215 = icmp ne i32 %214, 0
  br i1 %215, label %216, label %222

216:                                              ; preds = %213
  %217 = load ptr, ptr %8, align 8
  %218 = load ptr, ptr %20, align 8
  %219 = getelementptr inbounds nuw %struct.MorphOpaque, ptr %218, i32 0, i32 1
  %220 = load i32, ptr %219, align 4
  %221 = trunc i32 %220 to i8
  call void @pushOperator(ptr noundef %217, i8 noundef signext %221, i16 noundef signext 1)
  br label %222

222:                                              ; preds = %216, %213
  %223 = load i32, ptr %18, align 4
  %224 = add i32 %223, 1
  store i32 %224, ptr %18, align 4
  br label %42, !llvm.loop !14

225:                                              ; preds = %42
  %226 = getelementptr inbounds nuw %struct.ParsedText, ptr %14, i32 0, i32 0
  %227 = load ptr, ptr %226, align 8
  call void @pfree(ptr noundef %227)
  br label %230

228:                                              ; preds = %6
  %229 = load ptr, ptr %8, align 8
  call void @pushStop(ptr noundef %229)
  br label %230

230:                                              ; preds = %228, %225
  call void @llvm.lifetime.end.p0(i64 8, ptr %20) #7
  call void @llvm.lifetime.end.p0(i64 4, ptr %19) #7
  call void @llvm.lifetime.end.p0(i64 4, ptr %18) #7
  call void @llvm.lifetime.end.p0(i64 4, ptr %17) #7
  call void @llvm.lifetime.end.p0(i64 4, ptr %16) #7
  call void @llvm.lifetime.end.p0(i64 4, ptr %15) #7
  call void @llvm.lifetime.end.p0(i64 24, ptr %14) #7
  call void @llvm.lifetime.end.p0(i64 4, ptr %13) #7
  ret void
}