; Function Attrs: nounwind uwtable
define internal void @pushval_morph(i64 noundef %0, ptr noundef %1, ptr noundef %2, i32 noundef %3, i16 noundef signext %4, i1 noundef zeroext %5) #0 {
  %7 = alloca %struct.ParsedText, align 8
  call void @llvm.lifetime.start.p0(i64 24, ptr nonnull %7) #8
  %8 = inttoptr i64 %0 to ptr
  %9 = getelementptr inbounds nuw i8, ptr %7, i64 8
  store i32 4, ptr %9, align 8
  %10 = getelementptr inbounds nuw i8, ptr %7, i64 12
  store i32 0, ptr %10, align 4
  %11 = getelementptr inbounds nuw i8, ptr %7, i64 16
  store i32 0, ptr %11, align 8
  %12 = tail call ptr @palloc(i64 noundef 96) #8
  store ptr %12, ptr %7, align 8
  %13 = load i32, ptr %8, align 4
  call void @parsetext(i32 noundef %13, ptr noundef nonnull %7, ptr noundef %2, i32 noundef %3) #8
  %14 = load i32, ptr %10, align 4
  %15 = icmp sgt i32 %14, 0
  br i1 %15, label %.lr.ph78, label %111

.lr.ph78:                                         ; preds = %6
  %16 = getelementptr inbounds nuw i8, ptr %8, i64 4
  br label %17

17:                                               ; preds = %.lr.ph78, %106
  %18 = phi i32 [ %14, %.lr.ph78 ], [ %107, %106 ]
  %.077 = phi i32 [ 0, %.lr.ph78 ], [ %.1.lcssa, %106 ]
  %.04776 = phi i32 [ 0, %.lr.ph78 ], [ %108, %106 ]
  %.05175 = phi i32 [ 0, %.lr.ph78 ], [ %42, %106 ]
  %.not = icmp eq i32 %.05175, 0
  %.pre = load ptr, ptr %7, align 8
  br i1 %.not, label %..loopexit_crit_edge, label %19

..loopexit_crit_edge:                             ; preds = %17
  %.pre82 = sext i32 %.077 to i64
  br label %.loopexit

19:                                               ; preds = %17
  %20 = add nuw nsw i32 %.05175, 1
  %21 = sext i32 %.077 to i64
  %22 = getelementptr inbounds %struct.ParsedWord, ptr %.pre, i64 %21, i32 4
  %23 = load i16, ptr %22, align 8
  %24 = zext i16 %23 to i32
  %25 = icmp samesign ult i32 %20, %24
  br i1 %25, label %.lr.ph, label %.loopexit

.lr.ph:                                           ; preds = %19, %30
  %26 = phi i32 [ %32, %30 ], [ %20, %19 ]
  %.24960 = phi i32 [ %31, %30 ], [ %.04776, %19 ]
  call void @pushStop(ptr noundef %1) #8
  %.not58 = icmp eq i32 %.24960, 0
  br i1 %.not58, label %30, label %27

27:                                               ; preds = %.lr.ph
  %28 = load i32, ptr %16, align 4
  %29 = trunc i32 %28 to i8
  call void @pushOperator(ptr noundef %1, i8 noundef signext %29, i16 noundef signext 1) #8
  br label %30

30:                                               ; preds = %27, %.lr.ph
  %31 = add i32 %.24960, 1
  %32 = add nuw nsw i32 %26, 1
  %33 = load ptr, ptr %7, align 8
  %34 = getelementptr inbounds %struct.ParsedWord, ptr %33, i64 %21, i32 4
  %35 = load i16, ptr %34, align 8
  %36 = zext i16 %35 to i32
  %37 = icmp samesign ult i32 %32, %36
  br i1 %37, label %.lr.ph, label %.loopexit.loopexit, !llvm.loop !9

.loopexit.loopexit:                               ; preds = %30
  %.pre79 = load i32, ptr %10, align 4
  br label %.loopexit

.loopexit:                                        ; preds = %..loopexit_crit_edge, %.loopexit.loopexit, %19
  %.pre-phi = phi i64 [ %.pre82, %..loopexit_crit_edge ], [ %21, %.loopexit.loopexit ], [ %21, %19 ]
  %38 = phi i32 [ %18, %..loopexit_crit_edge ], [ %.pre79, %.loopexit.loopexit ], [ %18, %19 ]
  %39 = phi ptr [ %.pre, %..loopexit_crit_edge ], [ %33, %.loopexit.loopexit ], [ %.pre, %19 ]
  %.148 = phi i32 [ %.04776, %..loopexit_crit_edge ], [ %31, %.loopexit.loopexit ], [ %.04776, %19 ]
  %40 = getelementptr inbounds %struct.ParsedWord, ptr %39, i64 %.pre-phi, i32 4
  %41 = load i16, ptr %40, align 8
  %42 = zext i16 %41 to i32
  %43 = icmp slt i32 %.077, %38
  br i1 %43, label %.lr.ph71, label %.critedge

.lr.ph71:                                         ; preds = %.loopexit, %97
  %44 = phi i32 [ %98, %97 ], [ %38, %.loopexit ]
  %45 = phi i32 [ %99, %97 ], [ %38, %.loopexit ]
  %.170 = phi i32 [ %.2.lcssa, %97 ], [ %.077, %.loopexit ]
  %.05069 = phi i32 [ %100, %97 ], [ 0, %.loopexit ]
  %46 = load ptr, ptr %7, align 8
  %47 = sext i32 %.170 to i64
  %48 = getelementptr inbounds %struct.ParsedWord, ptr %46, i64 %47
  %49 = getelementptr inbounds nuw i8, ptr %48, i64 8
  %50 = load i16, ptr %49, align 8
  %51 = icmp eq i16 %41, %50
  br i1 %51, label %52, label %.critedge

52:                                               ; preds = %.lr.ph71
  %53 = getelementptr inbounds nuw i8, ptr %48, i64 4
  %54 = load i16, ptr %53, align 4
  %55 = icmp slt i32 %.170, %45
  br i1 %55, label %.lr.ph63.preheader, label %.critedge2

.lr.ph63.preheader:                               ; preds = %52
  %56 = load ptr, ptr %7, align 8
  %57 = sext i32 %.170 to i64
  %58 = getelementptr inbounds %struct.ParsedWord, ptr %56, i64 %57
  %59 = getelementptr inbounds nuw i8, ptr %58, i64 8
  %60 = load i16, ptr %59, align 8
  %61 = icmp eq i16 %41, %60
  br i1 %61, label %.lr.ph91, label %.critedge2

.lr.ph63:                                         ; preds = %90
  %62 = add i32 %.0466190, 1
  %63 = load ptr, ptr %7, align 8
  %64 = sext i32 %91 to i64
  %65 = getelementptr inbounds %struct.ParsedWord, ptr %63, i64 %64
  %66 = getelementptr inbounds nuw i8, ptr %65, i64 8
  %67 = load i16, ptr %66, align 8
  %68 = icmp eq i16 %41, %67
  br i1 %68, label %.lr.ph91, label %.critedge2, !llvm.loop !10

.lr.ph91:                                         ; preds = %.lr.ph63.preheader, %.lr.ph63
  %69 = phi ptr [ %65, %.lr.ph63 ], [ %58, %.lr.ph63.preheader ]
  %70 = phi i64 [ %64, %.lr.ph63 ], [ %57, %.lr.ph63.preheader ]
  %.0466190 = phi i32 [ %62, %.lr.ph63 ], [ 0, %.lr.ph63.preheader ]
  %.26289 = phi i32 [ %91, %.lr.ph63 ], [ %.170, %.lr.ph63.preheader ]
  %71 = phi i32 [ %92, %.lr.ph63 ], [ %45, %.lr.ph63.preheader ]
  %72 = phi i32 [ %92, %.lr.ph63 ], [ %44, %.lr.ph63.preheader ]
  %73 = getelementptr inbounds nuw i8, ptr %69, i64 4
  %74 = load i16, ptr %73, align 4
  %75 = icmp eq i16 %54, %74
  br i1 %75, label %76, label %.critedge2

76:                                               ; preds = %.lr.ph91
  %77 = getelementptr inbounds nuw i8, ptr %69, i64 16
  %78 = load ptr, ptr %77, align 8
  %79 = getelementptr inbounds nuw i8, ptr %69, i64 2
  %80 = load i16, ptr %79, align 2
  %81 = zext i16 %80 to i32
  %82 = load i16, ptr %69, align 8
  %83 = and i16 %82, 2
  %84 = icmp ne i16 %83, 0
  %85 = or i1 %5, %84
  call void @pushValue(ptr noundef %1, ptr noundef %78, i32 noundef %81, i16 noundef signext %4, i1 noundef zeroext %85) #8
  %86 = load ptr, ptr %7, align 8
  %87 = getelementptr inbounds %struct.ParsedWord, ptr %86, i64 %70, i32 5
  %88 = load ptr, ptr %87, align 8
  call void @pfree(ptr noundef %88) #8
  %.not57 = icmp eq i32 %.0466190, 0
  br i1 %.not57, label %90, label %89

89:                                               ; preds = %76
  call void @pushOperator(ptr noundef %1, i8 noundef signext 2, i16 noundef signext 0) #8
  br label %90

90:                                               ; preds = %89, %76
  %91 = add nsw i32 %.26289, 1
  %92 = load i32, ptr %10, align 4
  %93 = icmp slt i32 %91, %92
  br i1 %93, label %.lr.ph63, label %.critedge2, !llvm.loop !10

.critedge2:                                       ; preds = %.lr.ph63, %90, %.lr.ph91, %.lr.ph63.preheader, %52
  %94 = phi i32 [ %44, %52 ], [ %44, %.lr.ph63.preheader ], [ %72, %.lr.ph91 ], [ %92, %90 ], [ %92, %.lr.ph63 ]
  %95 = phi i32 [ %45, %52 ], [ %45, %.lr.ph63.preheader ], [ %71, %.lr.ph91 ], [ %92, %90 ], [ %92, %.lr.ph63 ]
  %.2.lcssa = phi i32 [ %.170, %52 ], [ %.170, %.lr.ph63.preheader ], [ %.26289, %.lr.ph91 ], [ %91, %90 ], [ %91, %.lr.ph63 ]
  %.not56 = icmp eq i32 %.05069, 0
  br i1 %.not56, label %97, label %96

96:                                               ; preds = %.critedge2
  call void @pushOperator(ptr noundef %1, i8 noundef signext 3, i16 noundef signext 0) #8
  %.pre80 = load i32, ptr %10, align 4
  br label %97

97:                                               ; preds = %96, %.critedge2
  %98 = phi i32 [ %.pre80, %96 ], [ %94, %.critedge2 ]
  %99 = phi i32 [ %.pre80, %96 ], [ %95, %.critedge2 ]
  %100 = add i32 %.05069, 1
  %101 = icmp slt i32 %.2.lcssa, %99
  br i1 %101, label %.lr.ph71, label %.critedge, !llvm.loop !11

.critedge:                                        ; preds = %.lr.ph71, %97, %.loopexit
  %102 = phi i32 [ %38, %.loopexit ], [ %98, %97 ], [ %44, %.lr.ph71 ]
  %.1.lcssa = phi i32 [ %.077, %.loopexit ], [ %.2.lcssa, %97 ], [ %.170, %.lr.ph71 ]
  %.not55 = icmp eq i32 %.148, 0
  br i1 %.not55, label %106, label %103

103:                                              ; preds = %.critedge
  %104 = load i32, ptr %16, align 4
  %105 = trunc i32 %104 to i8
  call void @pushOperator(ptr noundef %1, i8 noundef signext %105, i16 noundef signext 1) #8
  %.pre81 = load i32, ptr %10, align 4
  br label %106

106:                                              ; preds = %103, %.critedge
  %107 = phi i32 [ %.pre81, %103 ], [ %102, %.critedge ]
  %108 = add i32 %.148, 1
  %109 = icmp slt i32 %.1.lcssa, %107
  br i1 %109, label %17, label %._crit_edge, !llvm.loop !12

._crit_edge:                                      ; preds = %106
  %110 = load ptr, ptr %7, align 8
  call void @pfree(ptr noundef %110) #8
  br label %112

111:                                              ; preds = %6
  call void @pushStop(ptr noundef %1) #8
  br label %112

112:                                              ; preds = %111, %._crit_edge
  call void @llvm.lifetime.end.p0(i64 24, ptr nonnull %7) #8
  ret void
}